; Function Attrs: mustprogress uwtable
define void @_ZN6casadi9to_stringB5cxx11ENS_6FdModeE(ptr dead_on_unwind noalias writable sret(%"class.std::__cxx11::basic_string") align 8 %0, i32 noundef %1) local_unnamed_addr #3 personality ptr @__gxx_personality_v0 {
  %3 = alloca %"class.std::allocator", align 1
  %4 = alloca %"class.std::allocator", align 1
  %5 = alloca %"class.std::allocator", align 1
  %6 = alloca %"class.std::allocator", align 1
  %7 = alloca %"class.std::allocator", align 1
  switch i32 %1, label %32 [
    i32 0, label %8
    i32 1, label %14
    i32 2, label %20
    i32 3, label %26
  ]

8:                                                ; preds = %2
  call void @_ZNSaIcEC1Ev(ptr noundef nonnull align 1 dereferenceable(1) %3) #21
  %9 = invoke noundef ptr @_ZNSt7__cxx1112basic_stringIcSt11char_traitsIcESaIcEE13_M_local_dataEv(ptr noundef nonnull align 8 dereferenceable(32) %0)
          to label %.noexc unwind label %12

.noexc:                                           ; preds = %8
  invoke void @_ZNSt7__cxx1112basic_stringIcSt11char_traitsIcESaIcEE12_Alloc_hiderC1EPcRKS3_(ptr noundef nonnull align 8 dereferenceable(8) %0, ptr noundef %9, ptr noundef nonnull align 1 dereferenceable(1) %3)
          to label %.noexc4 unwind label %12

.noexc4:                                          ; preds = %.noexc
  invoke void @_ZNSt7__cxx1112basic_stringIcSt11char_traitsIcESaIcEE12_M_constructIPKcEEvT_S8_St20forward_iterator_tag(ptr noundef nonnull align 8 dereferenceable(32) %0, ptr noundef nonnull @.str, ptr noundef nonnull getelementptr inbounds ([8 x i8], ptr @.str, i64 0, i64 7))
          to label %_ZNSt7__cxx1112basic_stringIcSt11char_traitsIcESaIcEEC2IS3_EEPKcRKS3_.exit unwind label %10

10:                                               ; preds = %.noexc4
  %11 = landingpad { ptr, i32 }
          cleanup
  call void @_ZNSaIcED2Ev(ptr noundef nonnull align 1 dereferenceable(1) %0) #21
  br label %.body

12:                                               ; preds = %.noexc, %8
  %13 = landingpad { ptr, i32 }
          cleanup
  br label %.body

14:                                               ; preds = %2
  call void @_ZNSaIcEC1Ev(ptr noundef nonnull align 1 dereferenceable(1) %4) #21
  %15 = invoke noundef ptr @_ZNSt7__cxx1112basic_stringIcSt11char_traitsIcESaIcEE13_M_local_dataEv(ptr noundef nonnull align 8 dereferenceable(32) %0)
          to label %.noexc5 unwind label %18

.noexc5:                                          ; preds = %14
  invoke void @_ZNSt7__cxx1112basic_stringIcSt11char_traitsIcESaIcEE12_Alloc_hiderC1EPcRKS3_(ptr noundef nonnull align 8 dereferenceable(8) %0, ptr noundef %15, ptr noundef nonnull align 1 dereferenceable(1) %4)
          to label %.noexc6 unwind label %18

.noexc6:                                          ; preds = %.noexc5
  invoke void @_ZNSt7__cxx1112basic_stringIcSt11char_traitsIcESaIcEE12_M_constructIPKcEEvT_S8_St20forward_iterator_tag(ptr noundef nonnull align 8 dereferenceable(32) %0, ptr noundef nonnull @.str.1, ptr noundef nonnull getelementptr inbounds ([9 x i8], ptr @.str.1, i64 0, i64 8))
          to label %_ZNSt7__cxx1112basic_stringIcSt11char_traitsIcESaIcEEC2IS3_EEPKcRKS3_.exit unwind label %16

16:                                               ; preds = %.noexc6
  %17 = landingpad { ptr, i32 }
          cleanup
  call void @_ZNSaIcED2Ev(ptr noundef nonnull align 1 dereferenceable(1) %0) #21
  br label %.body

18:                                               ; preds = %.noexc5, %14
  %19 = landingpad { ptr, i32 }
          cleanup
  br label %.body

20:                                               ; preds = %2
  call void @_ZNSaIcEC1Ev(ptr noundef nonnull align 1 dereferenceable(1) %5) #21
  %21 = invoke noundef ptr @_ZNSt7__cxx1112basic_stringIcSt11char_traitsIcESaIcEE13_M_local_dataEv(ptr noundef nonnull align 8 dereferenceable(32) %0)
          to label %.noexc10 unwind label %24

.noexc10:                                         ; preds = %20
  invoke void @_ZNSt7__cxx1112basic_stringIcSt11char_traitsIcESaIcEE12_Alloc_hiderC1EPcRKS3_(ptr noundef nonnull align 8 dereferenceable(8) %0, ptr noundef %21, ptr noundef nonnull align 1 dereferenceable(1) %5)
          to label %.noexc11 unwind label %24

.noexc11:                                         ; preds = %.noexc10
  invoke void @_ZNSt7__cxx1112basic_stringIcSt11char_traitsIcESaIcEE12_M_constructIPKcEEvT_S8_St20forward_iterator_tag(ptr noundef nonnull align 8 dereferenceable(32) %0, ptr noundef nonnull @.str.2, ptr noundef nonnull getelementptr inbounds ([8 x i8], ptr @.str.2, i64 0, i64 7))
          to label %_ZNSt7__cxx1112basic_stringIcSt11char_traitsIcESaIcEEC2IS3_EEPKcRKS3_.exit unwind label %22

22:                                               ; preds = %.noexc11
  %23 = landingpad { ptr, i32 }
          cleanup
  call void @_ZNSaIcED2Ev(ptr noundef nonnull align 1 dereferenceable(1) %0) #21
  br label %.body

24:                                               ; preds = %.noexc10, %20
  %25 = landingpad { ptr, i32 }
          cleanup
  br label %.body

26:                                               ; preds = %2
  call void @_ZNSaIcEC1Ev(ptr noundef nonnull align 1 dereferenceable(1) %6) #21
  %27 = invoke noundef ptr @_ZNSt7__cxx1112basic_stringIcSt11char_traitsIcESaIcEE13_M_local_dataEv(ptr noundef nonnull align 8 dereferenceable(32) %0)
          to label %.noexc15 unwind label %30

.noexc15:                                         ; preds = %26
  invoke void @_ZNSt7__cxx1112basic_stringIcSt11char_traitsIcESaIcEE12_Alloc_hiderC1EPcRKS3_(ptr noundef nonnull align 8 dereferenceable(8) %0, ptr noundef %27, ptr noundef nonnull align 1 dereferenceable(1) %6)
          to label %.noexc16 unwind label %30

.noexc16:                                         ; preds = %.noexc15
  invoke void @_ZNSt7__cxx1112basic_stringIcSt11char_traitsIcESaIcEE12_M_constructIPKcEEvT_S8_St20forward_iterator_tag(ptr noundef nonnull align 8 dereferenceable(32) %0, ptr noundef nonnull @.str.3, ptr noundef nonnull getelementptr inbounds ([10 x i8], ptr @.str.3, i64 0, i64 9))
          to label %_ZNSt7__cxx1112basic_stringIcSt11char_traitsIcESaIcEEC2IS3_EEPKcRKS3_.exit unwind label %28

28:                                               ; preds = %.noexc16
  %29 = landingpad { ptr, i32 }
          cleanup
  call void @_ZNSaIcED2Ev(ptr noundef nonnull align 1 dereferenceable(1) %0) #21
  br label %.body

30:                                               ; preds = %.noexc15, %26
  %31 = landingpad { ptr, i32 }
          cleanup
  br label %.body

32:                                               ; preds = %2
  call void @_ZNSaIcEC1Ev(ptr noundef nonnull align 1 dereferenceable(1) %7) #21
  %33 = invoke noundef ptr @_ZNSt7__cxx1112basic_stringIcSt11char_traitsIcESaIcEE13_M_local_dataEv(ptr noundef nonnull align 8 dereferenceable(32) %0)
          to label %.noexc20 unwind label %36

.noexc20:                                         ; preds = %32
  invoke void @_ZNSt7__cxx1112basic_stringIcSt11char_traitsIcESaIcEE12_Alloc_hiderC1EPcRKS3_(ptr noundef nonnull align 8 dereferenceable(8) %0, ptr noundef %33, ptr noundef nonnull align 1 dereferenceable(1) %7)
          to label %.noexc21 unwind label %36

.noexc21:                                         ; preds = %.noexc20
  invoke void @_ZNSt7__cxx1112basic_stringIcSt11char_traitsIcESaIcEE12_M_constructIPKcEEvT_S8_St20forward_iterator_tag(ptr noundef nonnull align 8 dereferenceable(32) %0, ptr noundef nonnull @.str.4, ptr noundef nonnull @.str.4)
          to label %_ZNSt7__cxx1112basic_stringIcSt11char_traitsIcESaIcEEC2IS3_EEPKcRKS3_.exit unwind label %34

34:                                               ; preds = %.noexc21
  %35 = landingpad { ptr, i32 }
          cleanup
  call void @_ZNSaIcED2Ev(ptr noundef nonnull align 1 dereferenceable(1) %0) #21
  br label %.body

36:                                               ; preds = %.noexc20, %32
  %37 = landingpad { ptr, i32 }
          cleanup
  br label %.body

_ZNSt7__cxx1112basic_stringIcSt11char_traitsIcESaIcEEC2IS3_EEPKcRKS3_.exit: ; preds = %.noexc21, %.noexc16, %.noexc11, %.noexc6, %.noexc4
  %.sink = phi ptr [ %3, %.noexc4 ], [ %4, %.noexc6 ], [ %5, %.noexc11 ], [ %6, %.noexc16 ], [ %7, %.noexc21 ]
  call void @_ZNSaIcED1Ev(ptr noundef nonnull align 1 dereferenceable(1) %.sink) #21
  ret void

.body:                                            ; preds = %36, %34, %30, %28, %24, %22, %18, %16, %12, %10
  %.sink25 = phi ptr [ %3, %10 ], [ %3, %12 ], [ %4, %16 ], [ %4, %18 ], [ %5, %22 ], [ %5, %24 ], [ %6, %28 ], [ %6, %30 ], [ %7, %34 ], [ %7, %36 ]
  %.pn = phi { ptr, i32 } [ %11, %10 ], [ %13, %12 ], [ %17, %16 ], [ %19, %18 ], [ %23, %22 ], [ %25, %24 ], [ %29, %28 ], [ %31, %30 ], [ %35, %34 ], [ %37, %36 ]
  call void @_ZNSaIcED1Ev(ptr noundef nonnull align 1 dereferenceable(1) %.sink25) #21
  resume { ptr, i32 } %.pn
}